; Function Attrs: mustprogress nofree norecurse nosync nounwind willreturn memory(read, inaccessiblemem: none) uwtable
define hidden noundef zeroext i1 @_ZN4cvc58internal6theory11quantifiers18SygusRedundantCons11isRedundantEj(ptr noundef nonnull readonly align 8 captures(none) dereferenceable(144) %0, i32 noundef %1) local_unnamed_addr #7 align 2 {
  %3 = getelementptr inbounds nuw i8, ptr %0, i64 24
  %4 = zext i32 %1 to i64
  %5 = load ptr, ptr %3, align 8, !tbaa !17
  %6 = getelementptr inbounds nuw i32, ptr %5, i64 %4
  %7 = load i32, ptr %6, align 4, !tbaa !11
  %8 = icmp eq i32 %7, 1
  ret i1 %8
}